target datalayout = "e-m:e-p270:32:32-p271:32:32-p272:64:64-i64:64-i128:128-f80:128-n8:16:32:64-S128"
target triple = "x86_64-pc-linux-gnu"

%"class.std::__1::function" = type { %"class.std::__1::__function::__value_func" }
%"class.std::__1::__function::__value_func" = type { %"struct.std::__1::aligned_storage<24>::type", ptr, [8 x i8] }
%"struct.std::__1::aligned_storage<24>::type" = type { [32 x i8] }
%"class.std::__1::mutex" = type { %union.pthread_mutex_t }
%union.pthread_mutex_t = type { %struct.__pthread_mutex_s }
%struct.__pthread_mutex_s = type { i32, i32, i32, i32, i32, i16, i16, %struct.__pthread_internal_list }
%struct.__pthread_internal_list = type { ptr, ptr }
%"class.std::__1::lock_guard" = type { ptr }

@develop_callback = hidden global %"class.std::__1::function" zeroinitializer, align 16
@develop_callback_mutex = hidden global %"class.std::__1::mutex" zeroinitializer, align 8
@_ZTINSt3__117bad_function_callE = linkonce_odr dso_local constant { ptr, ptr, ptr } { ptr getelementptr inbounds (ptr, ptr @_ZTVN10__cxxabiv120__si_class_type_infoE, i64 2), ptr @_ZTSNSt3__117bad_function_callE, ptr @_ZTISt9exception }, comdat, align 8
@_ZTVNSt3__117bad_function_callE = linkonce_odr dso_local unnamed_addr constant { [5 x ptr] } { [5 x ptr] [ptr null, ptr @_ZTINSt3__117bad_function_callE, ptr @_ZNSt3__117bad_function_callD2Ev, ptr @_ZNSt3__117bad_function_callD0Ev, ptr @_ZNKSt9exception4whatEv] }, comdat, align 8
@_ZTVSt9exception = external unnamed_addr constant { [5 x ptr] }, align 8

; Function Attrs: mustprogress nounwind uwtable
define linkonce_odr hidden void @_ZNSt9exceptionC2B8ne190000Ev(ptr noundef nonnull align 8 dereferenceable(8) %0) unnamed_addr #1 comdat align 2 {
  %2 = alloca ptr, align 8
  store ptr %0, ptr %2, align 8
  %3 = load ptr, ptr %2, align 8
  store ptr getelementptr inbounds inrange(-16, 24) ({ [5 x ptr] }, ptr @_ZTVSt9exception, i32 0, i32 0, i32 2), ptr %3, align 8
  ret void
}

; Function Attrs: mustprogress nounwind uwtable
define linkonce_odr hidden void @_ZNSt3__117bad_function_callC2B8ne190000Ev(ptr noundef nonnull align 8 dereferenceable(8) %0) unnamed_addr #1 comdat align 2 {
  %2 = alloca ptr, align 8
  store ptr %0, ptr %2, align 8
  %3 = load ptr, ptr %2, align 8
  call void @_ZNSt9exceptionC2B8ne190000Ev(ptr noundef nonnull align 8 dereferenceable(8) %3) #2
  store ptr getelementptr inbounds inrange(-16, 24) ({ [5 x ptr] }, ptr @_ZTVNSt3__117bad_function_callE, i32 0, i32 0, i32 2), ptr %3, align 8
  ret void
}

; Function Attrs: mustprogress noreturn uwtable
define linkonce_odr hidden void @_ZNSt3__125__throw_bad_function_callB8ne190000Ev() #13 comdat {
  %1 = call ptr @__cxa_allocate_exception(i64 8) #2
  call void @llvm.memset.p0.i64(ptr align 16 %1, i8 0, i64 8, i1 false)
  call void @_ZNSt3__117bad_function_callC2B8ne190000Ev(ptr noundef nonnull align 8 dereferenceable(8) %1) #2
  call void @__cxa_throw(ptr %1, ptr @_ZTINSt3__117bad_function_callE, ptr @_ZNSt3__117bad_function_callD2Ev) #20
  unreachable
}

; Function Attrs: mustprogress uwtable
define linkonce_odr hidden void @_ZNKSt3__110__function12__value_funcIFvvEEclB8ne190000Ev(ptr noundef nonnull align 16 dereferenceable(40) %0) #3 comdat align 2 {
  %2 = alloca ptr, align 8
  store ptr %0, ptr %2, align 8
  %3 = load ptr, ptr %2, align 8
  %4 = getelementptr inbounds %"class.std::__1::__function::__value_func", ptr %3, i32 0, i32 1
  %5 = load ptr, ptr %4, align 16
  %6 = icmp eq ptr %5, null
  br i1 %6, label %7, label %8

7:                                                ; preds = %1
  call void @_ZNSt3__125__throw_bad_function_callB8ne190000Ev() #20
  unreachable

8:                                                ; preds = %1
  %9 = getelementptr inbounds %"class.std::__1::__function::__value_func", ptr %3, i32 0, i32 1
  %10 = load ptr, ptr %9, align 16
  %11 = load ptr, ptr %10, align 8
  %12 = getelementptr inbounds ptr, ptr %11, i64 6
  %13 = load ptr, ptr %12, align 8
  call void %13(ptr noundef nonnull align 8 dereferenceable(8) %10)
  ret void
}

; Function Attrs: mustprogress nounwind uwtable
define linkonce_odr hidden noundef zeroext i1 @_ZNKSt3__110__function12__value_funcIFvvEEcvbB8ne190000Ev(ptr noundef nonnull align 16 dereferenceable(40) %0) #1 comdat align 2 {
  %2 = alloca ptr, align 8
  store ptr %0, ptr %2, align 8
  %3 = load ptr, ptr %2, align 8
  %4 = getelementptr inbounds %"class.std::__1::__function::__value_func", ptr %3, i32 0, i32 1
  %5 = load ptr, ptr %4, align 16
  %6 = icmp ne ptr %5, null
  ret i1 %6
}

; Function Attrs: mustprogress nounwind uwtable
define linkonce_odr hidden void @_ZNSt3__110lock_guardINS_5mutexEED2B8ne190000Ev(ptr noundef nonnull align 8 dereferenceable(8) %0) unnamed_addr #1 comdat align 2 {
  %2 = alloca ptr, align 8
  store ptr %0, ptr %2, align 8
  %3 = load ptr, ptr %2, align 8
  %4 = getelementptr inbounds %"class.std::__1::lock_guard", ptr %3, i32 0, i32 0
  %5 = load ptr, ptr %4, align 8
  call void @_ZNSt3__15mutex6unlockEv(ptr noundef nonnull align 8 dereferenceable(40) %5) #2
  ret void
}

; Function Attrs: mustprogress uwtable
define linkonce_odr hidden void @_ZNKSt3__18functionIFvvEEclEv(ptr noundef nonnull align 16 dereferenceable(48) %0) #3 comdat align 2 {
  %2 = alloca ptr, align 8
  store ptr %0, ptr %2, align 8
  %3 = load ptr, ptr %2, align 8
  %4 = getelementptr inbounds %"class.std::__1::function", ptr %3, i32 0, i32 0
  call void @_ZNKSt3__110__function12__value_funcIFvvEEclB8ne190000Ev(ptr noundef nonnull align 16 dereferenceable(40) %4)
  ret void
}

; Function Attrs: mustprogress nounwind uwtable
define linkonce_odr hidden noundef zeroext i1 @_ZNKSt3__18functionIFvvEEcvbB8ne190000Ev(ptr noundef nonnull align 16 dereferenceable(48) %0) #1 comdat align 2 {
  %2 = alloca ptr, align 8
  store ptr %0, ptr %2, align 8
  %3 = load ptr, ptr %2, align 8
  %4 = getelementptr inbounds %"class.std::__1::function", ptr %3, i32 0, i32 0
  %5 = call noundef zeroext i1 @_ZNKSt3__110__function12__value_funcIFvvEEcvbB8ne190000Ev(ptr noundef nonnull align 16 dereferenceable(40) %4) #2
  ret i1 %5
}

; Function Attrs: mustprogress uwtable
define linkonce_odr hidden void @_ZNSt3__110lock_guardINS_5mutexEEC2B8ne190000ERS1_(ptr noundef nonnull align 8 dereferenceable(8) %0, ptr noundef nonnull align 8 dereferenceable(40) %1) unnamed_addr #3 comdat align 2 {
  %3 = alloca ptr, align 8
  %4 = alloca ptr, align 8
  store ptr %0, ptr %3, align 8
  store ptr %1, ptr %4, align 8
  %5 = load ptr, ptr %3, align 8
  %6 = getelementptr inbounds %"class.std::__1::lock_guard", ptr %5, i32 0, i32 0
  %7 = load ptr, ptr %4, align 8
  store ptr %7, ptr %6, align 8
  %8 = getelementptr inbounds %"class.std::__1::lock_guard", ptr %5, i32 0, i32 0
  %9 = load ptr, ptr %8, align 8
  call void @_ZNSt3__15mutex4lockEv(ptr noundef nonnull align 8 dereferenceable(40) %9)
  ret void
}

; Function Attrs: mustprogress uwtable
define hidden void @_Z18hup_signal_handleri(i32 noundef %0) #3 personality ptr @__gxx_personality_v0 {
  %2 = alloca i32, align 4
  %3 = alloca %"class.std::__1::lock_guard", align 8
  %4 = alloca ptr, align 8
  %5 = alloca i32, align 4
  store i32 %0, ptr %2, align 4
  %6 = load i32, ptr %2, align 4
  %7 = icmp ne i32 %6, 1
  br i1 %7, label %8, label %9

8:                                                ; preds = %1
  br label %18

9:                                                ; preds = %1
  call void @_ZNSt3__110lock_guardINS_5mutexEEC2B8ne190000ERS1_(ptr noundef nonnull align 8 dereferenceable(8) %3, ptr noundef nonnull align 8 dereferenceable(40) @develop_callback_mutex)
  %10 = call noundef zeroext i1 @_ZNKSt3__18functionIFvvEEcvbB8ne190000Ev(ptr noundef nonnull align 16 dereferenceable(48) @develop_callback) #2
  br i1 %10, label %11, label %17

11:                                               ; preds = %9
  invoke void @_ZNKSt3__18functionIFvvEEclEv(ptr noundef nonnull align 16 dereferenceable(48) @develop_callback)
          to label %12 unwind label %13

12:                                               ; preds = %11
  br label %17

13:                                               ; preds = %11
  %14 = landingpad { ptr, i32 }
          cleanup
  %15 = extractvalue { ptr, i32 } %14, 0
  store ptr %15, ptr %4, align 8
  %16 = extractvalue { ptr, i32 } %14, 1
  store i32 %16, ptr %5, align 4
  call void @_ZNSt3__110lock_guardINS_5mutexEED2B8ne190000Ev(ptr noundef nonnull align 8 dereferenceable(8) %3) #2
  br label %19

17:                                               ; preds = %12, %9
  call void @_ZNSt3__110lock_guardINS_5mutexEED2B8ne190000Ev(ptr noundef nonnull align 8 dereferenceable(8) %3) #2
  br label %18

18:                                               ; preds = %17, %8
  ret void

19:                                               ; preds = %13
  %20 = load ptr, ptr %4, align 8
  %21 = load i32, ptr %5, align 4
  %22 = insertvalue { ptr, i32 } poison, ptr %20, 0
  %23 = insertvalue { ptr, i32 } %22, i32 %21, 1
  resume { ptr, i32 } %23
}