; Function Attrs: mustprogress uwtable
define hidden void @_Z18hup_signal_handleri(i32 noundef %0) #2 personality ptr @__gxx_personality_v0 {
  %.not = icmp eq i32 %0, 1
  br i1 %.not, label %2, label %9

2:                                                ; preds = %1
  tail call void @_ZNSt3__15mutex4lockEv(ptr noundef nonnull align 8 dereferenceable(40) @develop_callback_mutex)
  %3 = load ptr, ptr getelementptr inbounds (%"class.std::__1::function", ptr @develop_callback, i64 0, i32 0, i32 1), align 16
  %.not4 = icmp eq ptr %3, null
  br i1 %.not4, label %_ZNKSt3__18functionIFvvEEclEv.exit, label %_ZNKSt3__110__function12__value_funcIFvvEEclB8ne190000Ev.exit.i

_ZNKSt3__110__function12__value_funcIFvvEEclB8ne190000Ev.exit.i: ; preds = %2
  %4 = load ptr, ptr %3, align 8
  %5 = getelementptr inbounds i8, ptr %4, i64 48
  %6 = load ptr, ptr %5, align 8
  invoke void %6(ptr noundef nonnull align 8 dereferenceable(8) %3)
          to label %_ZNKSt3__18functionIFvvEEclEv.exit unwind label %7

7:                                                ; preds = %_ZNKSt3__110__function12__value_funcIFvvEEclB8ne190000Ev.exit.i
  %8 = landingpad { ptr, i32 }
          cleanup
  tail call void @_ZNSt3__15mutex6unlockEv(ptr noundef nonnull align 8 dereferenceable(40) @develop_callback_mutex) #20
  resume { ptr, i32 } %8

_ZNKSt3__18functionIFvvEEclEv.exit:               ; preds = %_ZNKSt3__110__function12__value_funcIFvvEEclB8ne190000Ev.exit.i, %2
  tail call void @_ZNSt3__15mutex6unlockEv(ptr noundef nonnull align 8 dereferenceable(40) @develop_callback_mutex) #20
  br label %9

9:                                                ; preds = %1, %_ZNKSt3__18functionIFvvEEclEv.exit
  ret void
}